; Function Attrs: nounwind uwtable
define internal range(i32 0, 23) i32 @experimental_batch_alloc_ctl(ptr readnone captures(none) %0, ptr readnone captures(none) %1, i64 %2, ptr noundef writeonly captures(address_is_null) %3, ptr noundef captures(address_is_null) %4, ptr noundef readonly captures(address_is_null) %5, i64 noundef %6) #0 {
  %8 = alloca i64, align 8
  %9 = icmp eq ptr %3, null
  %10 = icmp eq ptr %4, null
  %or.cond = or i1 %9, %10
  br i1 %or.cond, label %13, label %11

11:                                               ; preds = %7
  %12 = load i64, ptr %4, align 8, !tbaa !4
  %.not = icmp eq i64 %12, 8
  br i1 %.not, label %14, label %.thread

13:                                               ; preds = %7
  br i1 %10, label %22, label %.thread

.thread:                                          ; preds = %11, %13
  store i64 0, ptr %4, align 8, !tbaa !4
  br label %22

14:                                               ; preds = %11
  %15 = icmp eq ptr %5, null
  %16 = icmp ne i64 %6, 32
  %or.cond3 = or i1 %15, %16
  br i1 %or.cond3, label %22, label %17

17:                                               ; preds = %14
  %.sroa.0.0.copyload = load ptr, ptr %5, align 8, !tbaa !230
  %.sroa.2.0..sroa_idx = getelementptr inbounds nuw i8, ptr %5, i64 8
  %.sroa.2.0.copyload = load i64, ptr %.sroa.2.0..sroa_idx, align 8, !tbaa !4
  %.sroa.3.0..sroa_idx = getelementptr inbounds nuw i8, ptr %5, i64 16
  %.sroa.3.0.copyload = load i64, ptr %.sroa.3.0..sroa_idx, align 8, !tbaa !4
  %.sroa.4.0..sroa_idx = getelementptr inbounds nuw i8, ptr %5, i64 24
  %.sroa.4.0.copyload = load i32, ptr %.sroa.4.0..sroa_idx, align 8, !tbaa !96
  %18 = tail call i64 @je_batch_alloc(ptr noundef %.sroa.0.0.copyload, i64 noundef %.sroa.2.0.copyload, i64 noundef %.sroa.3.0.copyload, i32 noundef %.sroa.4.0.copyload) #15
  store i64 %18, ptr %8, align 8, !tbaa !4
  %19 = load i64, ptr %4, align 8, !tbaa !4
  %.not31 = icmp eq i64 %19, 8
  br i1 %.not31, label %21, label %20

20:                                               ; preds = %17
  %spec.select = tail call i64 @llvm.umin.i64(i64 %19, i64 8)
  call void @llvm.memcpy.p0.p0.i64(ptr nonnull align 1 %3, ptr nonnull align 8 %8, i64 %spec.select, i1 false)
  store i64 %spec.select, ptr %4, align 8, !tbaa !4
  br label %22

21:                                               ; preds = %17
  store i64 %18, ptr %3, align 8, !tbaa !4
  br label %22

22:                                               ; preds = %21, %20, %.thread, %13, %14
  %.026 = phi i32 [ 22, %20 ], [ 0, %21 ], [ 22, %.thread ], [ 22, %13 ], [ 22, %14 ]
  ret i32 %.026
}